; Function Attrs: mustprogress uwtable
define hidden noundef i32 @_ZN4ncnn3Log10load_paramERKNS_9ParamDictE(ptr noundef nonnull writeonly align 8 captures(none) dereferenceable(220) initializes((208, 220)) %0, ptr noundef nonnull align 8 dereferenceable(16) %1) unnamed_addr #2 align 2 {
  %3 = tail call fast noundef nofpclass(nan inf) float @_ZNK4ncnn9ParamDict3getEif(ptr noundef nonnull align 8 dereferenceable(16) %1, i32 noundef 0, float noundef nofpclass(nan inf) -1.000000e+00)
  %4 = getelementptr inbounds nuw i8, ptr %0, i64 208
  store float %3, ptr %4, align 8, !tbaa !4
  %5 = tail call fast noundef nofpclass(nan inf) float @_ZNK4ncnn9ParamDict3getEif(ptr noundef nonnull align 8 dereferenceable(16) %1, i32 noundef 1, float noundef nofpclass(nan inf) 1.000000e+00)
  %6 = getelementptr inbounds nuw i8, ptr %0, i64 212
  store float %5, ptr %6, align 4, !tbaa !27
  %7 = tail call fast noundef nofpclass(nan inf) float @_ZNK4ncnn9ParamDict3getEif(ptr noundef nonnull align 8 dereferenceable(16) %1, i32 noundef 2, float noundef nofpclass(nan inf) 0.000000e+00)
  %8 = getelementptr inbounds nuw i8, ptr %0, i64 216
  store float %7, ptr %8, align 8, !tbaa !28
  ret i32 0
}